; Function Attrs: mustprogress nounwind uwtable
define internal void @_ZN7rocksdb12_GLOBAL__N_115HashLinkListRep16FullListIteratorD0Ev(ptr noundef nonnull align 8 dereferenceable(72) %this) unnamed_addr #0 align 2 personality ptr @__gxx_personality_v0 {
entry:
  store ptr getelementptr inbounds ({ [13 x ptr] }, ptr @_ZTVN7rocksdb12_GLOBAL__N_115HashLinkListRep16FullListIteratorE, i64 0, i32 0, i64 2), ptr %this, align 8
  %tmp_.i = getelementptr inbounds i8, ptr %this, i64 40
  tail call void @_ZNSt7__cxx1112basic_stringIcSt11char_traitsIcESaIcEED1Ev(ptr noundef nonnull align 8 dereferenceable(32) %tmp_.i) #25
  %allocator_.i = getelementptr inbounds i8, ptr %this, i64 32
  %0 = load ptr, ptr %allocator_.i, align 8
  %cmp.not.i.i = icmp eq ptr %0, null
  br i1 %cmp.not.i.i, label %_ZNSt10unique_ptrIN7rocksdb9AllocatorESt14default_deleteIS1_EED2Ev.exit.i, label %_ZNKSt14default_deleteIN7rocksdb9AllocatorEEclEPS1_.exit.i.i

_ZNKSt14default_deleteIN7rocksdb9AllocatorEEclEPS1_.exit.i.i: ; preds = %entry
  %vtable.i.i.i = load ptr, ptr %0, align 8
  %vfn.i.i.i = getelementptr inbounds i8, ptr %vtable.i.i.i, i64 8
  %1 = load ptr, ptr %vfn.i.i.i, align 8
  tail call void %1(ptr noundef nonnull align 8 dereferenceable(8) %0) #25
  br label %_ZNSt10unique_ptrIN7rocksdb9AllocatorESt14default_deleteIS1_EED2Ev.exit.i

_ZNSt10unique_ptrIN7rocksdb9AllocatorESt14default_deleteIS1_EED2Ev.exit.i: ; preds = %_ZNKSt14default_deleteIN7rocksdb9AllocatorEEclEPS1_.exit.i.i, %entry
  store ptr null, ptr %allocator_.i, align 8
  %full_list_.i = getelementptr inbounds i8, ptr %this, i64 24
  %2 = load ptr, ptr %full_list_.i, align 8
  %cmp.not.i1.i = icmp eq ptr %2, null
  br i1 %cmp.not.i1.i, label %_ZN7rocksdb12_GLOBAL__N_115HashLinkListRep16FullListIteratorD2Ev.exit, label %_ZNKSt14default_deleteIN7rocksdb8SkipListIPKcRKNS0_11MemTableRep13KeyComparatorEEEEclEPS8_.exit.i.i

_ZNKSt14default_deleteIN7rocksdb8SkipListIPKcRKNS0_11MemTableRep13KeyComparatorEEEEclEPS8_.exit.i.i: ; preds = %_ZNSt10unique_ptrIN7rocksdb9AllocatorESt14default_deleteIS1_EED2Ev.exit.i
  tail call void @_ZdlPv(ptr noundef nonnull %2) #23
  br label %_ZN7rocksdb12_GLOBAL__N_115HashLinkListRep16FullListIteratorD2Ev.exit

_ZN7rocksdb12_GLOBAL__N_115HashLinkListRep16FullListIteratorD2Ev.exit: ; preds = %_ZNSt10unique_ptrIN7rocksdb9AllocatorESt14default_deleteIS1_EED2Ev.exit.i, %_ZNKSt14default_deleteIN7rocksdb8SkipListIPKcRKNS0_11MemTableRep13KeyComparatorEEEEclEPS8_.exit.i.i
  tail call void @_ZdlPv(ptr noundef nonnull %this) #23
  ret void
}